; Function Attrs: mustprogress uwtable
define hidden noundef ptr @pj_putp6(ptr noundef %0) local_unnamed_addr #0 {
  %.not = icmp eq ptr %0, null
  br i1 %.not, label %14, label %2

2:                                                ; preds = %1
  %3 = tail call noalias dereferenceable_or_null(40) ptr @calloc(i64 noundef 1, i64 noundef 40) #7
  %4 = icmp eq ptr %3, null
  br i1 %4, label %5, label %7

5:                                                ; preds = %2
  %6 = tail call noundef ptr @_Z21pj_default_destructorP8PJconstsi(ptr noundef nonnull %0, i32 noundef 4096)
  br label %_Z34pj_projection_specific_setup_putp6P8PJconsts.exit

7:                                                ; preds = %2
  %8 = getelementptr inbounds i8, ptr %0, i64 88
  store ptr %3, ptr %8, align 8
  store <2 x double> <double 1.013460e+00, double 9.191000e-01>, ptr %3, align 8
  %9 = getelementptr inbounds i8, ptr %3, i64 16
  store <2 x double> <double 4.000000e+00, double 0x40012D59AF8C4A90>, ptr %9, align 8
  %10 = getelementptr inbounds i8, ptr %3, i64 32
  store double 2.000000e+00, ptr %10, align 8
  %11 = getelementptr inbounds i8, ptr %0, i64 216
  store double 0.000000e+00, ptr %11, align 8
  %12 = getelementptr inbounds i8, ptr %0, i64 112
  store ptr @_ZL15putp6_s_inverse5PJ_XYP8PJconsts, ptr %12, align 8
  %13 = getelementptr inbounds i8, ptr %0, i64 104
  store ptr @_ZL15putp6_s_forward5PJ_LPP8PJconsts, ptr %13, align 8
  br label %_Z34pj_projection_specific_setup_putp6P8PJconsts.exit

14:                                               ; preds = %1
  %15 = tail call noundef ptr @_Z6pj_newv()
  %16 = icmp eq ptr %15, null
  br i1 %16, label %_Z34pj_projection_specific_setup_putp6P8PJconsts.exit, label %17

17:                                               ; preds = %14
  %18 = getelementptr inbounds i8, ptr %15, i64 8
  store ptr @.str, ptr %18, align 8
  %19 = getelementptr inbounds i8, ptr %15, i64 16
  store ptr @_ZL9des_putp6, ptr %19, align 8
  %20 = getelementptr inbounds i8, ptr %15, i64 360
  store i32 1, ptr %20, align 8
  %21 = getelementptr inbounds i8, ptr %15, i64 380
  store i32 4, ptr %21, align 4
  %22 = getelementptr inbounds i8, ptr %15, i64 384
  store i32 1, ptr %22, align 8
  br label %_Z34pj_projection_specific_setup_putp6P8PJconsts.exit

_Z34pj_projection_specific_setup_putp6P8PJconsts.exit: ; preds = %7, %5, %14, %17
  %.0 = phi ptr [ %15, %17 ], [ null, %14 ], [ %6, %5 ], [ %0, %7 ]
  ret ptr %.0
}